target datalayout = "e-m:e-p270:32:32-p271:32:32-p272:64:64-i64:64-i128:128-f80:128-n8:16:32:64-S128"
target triple = "x86_64-pc-linux-gnu"

%struct.st_engine_pile = type { i32, ptr, ptr, i32 }
%struct.st_engine_table = type { %struct.lhash_st_ENGINE_PILE }
%struct.lhash_st_ENGINE_PILE = type { %union.lh_ENGINE_PILE_dummy }
%union.lh_ENGINE_PILE_dummy = type { ptr }
%struct.engine_st = type { ptr, ptr, ptr, ptr, ptr, ptr, ptr, ptr, ptr, ptr, ptr, ptr, ptr, ptr, ptr, ptr, ptr, ptr, ptr, i32, %struct.CRYPTO_REF_COUNT, i32, %struct.crypto_ex_data_st, ptr, ptr, ptr, ptr, ptr }
%struct.CRYPTO_REF_COUNT = type { i32 }
%struct.crypto_ex_data_st = type { ptr, ptr }

@table_flags = internal global i32 0, align 4
@global_engine_lock = external global ptr, align 8

; Function Attrs: inlinehint nounwind uwtable
define internal ptr @lh_ENGINE_PILE_new(ptr noundef %0, ptr noundef %1) #3 {
  %3 = alloca ptr, align 8
  %4 = alloca ptr, align 8
  store ptr %0, ptr %3, align 8, !tbaa !10
  store ptr %1, ptr %4, align 8, !tbaa !10
  %5 = load ptr, ptr %3, align 8, !tbaa !10
  %6 = load ptr, ptr %4, align 8, !tbaa !10
  %7 = call ptr @OPENSSL_LH_new(ptr noundef %5, ptr noundef %6)
  %8 = call ptr @OPENSSL_LH_set_thunks(ptr noundef %7, ptr noundef @lh_ENGINE_PILE_hfn_thunk, ptr noundef @lh_ENGINE_PILE_cfn_thunk, ptr noundef @lh_ENGINE_PILE_doall_thunk, ptr noundef @lh_ENGINE_PILE_doall_arg_thunk)
  ret ptr %8
}

; Function Attrs: inlinehint nounwind uwtable
define internal ptr @sk_ENGINE_value(ptr noundef %0, i32 noundef %1) #3 {
  %3 = alloca ptr, align 8
  %4 = alloca i32, align 4
  store ptr %0, ptr %3, align 8, !tbaa !29
  store i32 %1, ptr %4, align 4, !tbaa !3
  %5 = load ptr, ptr %3, align 8, !tbaa !29
  %6 = load i32, ptr %4, align 4, !tbaa !3
  %7 = call ptr @OPENSSL_sk_value(ptr noundef %5, i32 noundef %6)
  ret ptr %7
}

; Function Attrs: inlinehint nounwind uwtable
define internal ptr @lh_ENGINE_PILE_retrieve(ptr noundef %0, ptr noundef %1) #3 {
  %3 = alloca ptr, align 8
  %4 = alloca ptr, align 8
  store ptr %0, ptr %3, align 8, !tbaa !27
  store ptr %1, ptr %4, align 8, !tbaa !20
  %5 = load ptr, ptr %3, align 8, !tbaa !27
  %6 = load ptr, ptr %4, align 8, !tbaa !20
  %7 = call ptr @OPENSSL_LH_retrieve(ptr noundef %5, ptr noundef %6)
  ret ptr %7
}

; Function Attrs: nounwind uwtable
define internal i32 @int_table_check(ptr noundef %0, i32 noundef %1) #0 {
  %3 = alloca i32, align 4
  %4 = alloca ptr, align 8
  %5 = alloca i32, align 4
  %6 = alloca ptr, align 8
  %7 = alloca i32, align 4
  store ptr %0, ptr %4, align 8, !tbaa !7
  store i32 %1, ptr %5, align 4, !tbaa !3
  call void @llvm.lifetime.start.p0(i64 8, ptr %6) #4
  %8 = load ptr, ptr %4, align 8, !tbaa !7
  %9 = load ptr, ptr %8, align 8, !tbaa !15
  %10 = icmp ne ptr %9, null
  br i1 %10, label %11, label %12

11:                                               ; preds = %2
  store i32 1, ptr %3, align 4
  store i32 1, ptr %7, align 4
  br label %23

12:                                               ; preds = %2
  %13 = load i32, ptr %5, align 4, !tbaa !3
  %14 = icmp ne i32 %13, 0
  br i1 %14, label %16, label %15

15:                                               ; preds = %12
  store i32 0, ptr %3, align 4
  store i32 1, ptr %7, align 4
  br label %23

16:                                               ; preds = %12
  %17 = call ptr @lh_ENGINE_PILE_new(ptr noundef @engine_pile_hash, ptr noundef @engine_pile_cmp)
  store ptr %17, ptr %6, align 8, !tbaa !27
  %18 = icmp eq ptr %17, null
  br i1 %18, label %19, label %20

19:                                               ; preds = %16
  store i32 0, ptr %3, align 4
  store i32 1, ptr %7, align 4
  br label %23

20:                                               ; preds = %16
  %21 = load ptr, ptr %6, align 8, !tbaa !27
  %22 = load ptr, ptr %4, align 8, !tbaa !7
  store ptr %21, ptr %22, align 8, !tbaa !15
  store i32 1, ptr %3, align 4
  store i32 1, ptr %7, align 4
  br label %23

23:                                               ; preds = %20, %19, %15, %11
  call void @llvm.lifetime.end.p0(i64 8, ptr %6) #4
  %24 = load i32, ptr %3, align 4
  ret i32 %24
}

; Function Attrs: nounwind uwtable
define ptr @ossl_engine_table_select(ptr noundef %0, i32 noundef %1, ptr noundef %2, i32 noundef %3) #0 {
  %5 = alloca ptr, align 8
  %6 = alloca ptr, align 8
  %7 = alloca i32, align 4
  %8 = alloca ptr, align 8
  %9 = alloca i32, align 4
  %10 = alloca ptr, align 8
  %11 = alloca %struct.st_engine_pile, align 8
  %12 = alloca ptr, align 8
  %13 = alloca i32, align 4
  %14 = alloca i32, align 4
  %15 = alloca i32, align 4
  store ptr %0, ptr %6, align 8, !tbaa !7
  store i32 %1, ptr %7, align 4, !tbaa !3
  store ptr %2, ptr %8, align 8, !tbaa !31
  store i32 %3, ptr %9, align 4, !tbaa !3
  call void @llvm.lifetime.start.p0(i64 8, ptr %10) #4
  store ptr null, ptr %10, align 8, !tbaa !11
  call void @llvm.lifetime.start.p0(i64 32, ptr %11) #4
  call void @llvm.lifetime.start.p0(i64 8, ptr %12) #4
  store ptr null, ptr %12, align 8, !tbaa !20
  call void @llvm.lifetime.start.p0(i64 4, ptr %13) #4
  call void @llvm.lifetime.start.p0(i64 4, ptr %14) #4
  store i32 0, ptr %14, align 4, !tbaa !3
  %16 = call i32 @OPENSSL_init_crypto(i64 noundef 64, ptr noundef null)
  %17 = load ptr, ptr %6, align 8, !tbaa !7
  %18 = load ptr, ptr %17, align 8, !tbaa !15
  %19 = icmp ne ptr %18, null
  br i1 %19, label %21, label %20

20:                                               ; preds = %4
  store ptr null, ptr %5, align 8
  store i32 1, ptr %15, align 4
  br label %135

21:                                               ; preds = %4
  %22 = load ptr, ptr @global_engine_lock, align 8, !tbaa !10
  %23 = call i32 @CRYPTO_THREAD_write_lock(ptr noundef %22)
  %24 = icmp ne i32 %23, 0
  br i1 %24, label %26, label %25

25:                                               ; preds = %21
  store ptr null, ptr %5, align 8
  store i32 1, ptr %15, align 4
  br label %135

26:                                               ; preds = %21
  %27 = call i32 @ERR_set_mark()
  %28 = load ptr, ptr %6, align 8, !tbaa !7
  %29 = call i32 @int_table_check(ptr noundef %28, i32 noundef 0)
  %30 = icmp ne i32 %29, 0
  br i1 %30, label %32, label %31

31:                                               ; preds = %26
  br label %119

32:                                               ; preds = %26
  %33 = load i32, ptr %7, align 4, !tbaa !3
  %34 = getelementptr inbounds nuw %struct.st_engine_pile, ptr %11, i32 0, i32 0
  store i32 %33, ptr %34, align 8, !tbaa !17
  %35 = load ptr, ptr %6, align 8, !tbaa !7
  %36 = load ptr, ptr %35, align 8, !tbaa !15
  %37 = getelementptr inbounds nuw %struct.st_engine_table, ptr %36, i32 0, i32 0
  %38 = call ptr @lh_ENGINE_PILE_retrieve(ptr noundef %37, ptr noundef %11)
  store ptr %38, ptr %12, align 8, !tbaa !20
  %39 = load ptr, ptr %12, align 8, !tbaa !20
  %40 = icmp ne ptr %39, null
  br i1 %40, label %42, label %41

41:                                               ; preds = %32
  br label %119

42:                                               ; preds = %32
  %43 = load ptr, ptr %12, align 8, !tbaa !20
  %44 = getelementptr inbounds nuw %struct.st_engine_pile, ptr %43, i32 0, i32 2
  %45 = load ptr, ptr %44, align 8, !tbaa !24
  %46 = icmp ne ptr %45, null
  br i1 %46, label %47, label %57

47:                                               ; preds = %42
  %48 = load ptr, ptr %12, align 8, !tbaa !20
  %49 = getelementptr inbounds nuw %struct.st_engine_pile, ptr %48, i32 0, i32 2
  %50 = load ptr, ptr %49, align 8, !tbaa !24
  %51 = call i32 @engine_unlocked_init(ptr noundef %50)
  %52 = icmp ne i32 %51, 0
  br i1 %52, label %53, label %57

53:                                               ; preds = %47
  %54 = load ptr, ptr %12, align 8, !tbaa !20
  %55 = getelementptr inbounds nuw %struct.st_engine_pile, ptr %54, i32 0, i32 2
  %56 = load ptr, ptr %55, align 8, !tbaa !24
  store ptr %56, ptr %10, align 8, !tbaa !11
  br label %119

57:                                               ; preds = %47, %42
  %58 = load ptr, ptr %12, align 8, !tbaa !20
  %59 = getelementptr inbounds nuw %struct.st_engine_pile, ptr %58, i32 0, i32 3
  %60 = load i32, ptr %59, align 8, !tbaa !22
  %61 = icmp ne i32 %60, 0
  br i1 %61, label %62, label %66

62:                                               ; preds = %57
  %63 = load ptr, ptr %12, align 8, !tbaa !20
  %64 = getelementptr inbounds nuw %struct.st_engine_pile, ptr %63, i32 0, i32 2
  %65 = load ptr, ptr %64, align 8, !tbaa !24
  store ptr %65, ptr %10, align 8, !tbaa !11
  br label %119

66:                                               ; preds = %57
  br label %67

67:                                               ; preds = %118, %66
  %68 = load ptr, ptr %12, align 8, !tbaa !20
  %69 = getelementptr inbounds nuw %struct.st_engine_pile, ptr %68, i32 0, i32 1
  %70 = load ptr, ptr %69, align 8, !tbaa !23
  %71 = load i32, ptr %14, align 4, !tbaa !3
  %72 = add nsw i32 %71, 1
  store i32 %72, ptr %14, align 4, !tbaa !3
  %73 = call ptr @sk_ENGINE_value(ptr noundef %70, i32 noundef %71)
  store ptr %73, ptr %10, align 8, !tbaa !11
  %74 = load ptr, ptr %10, align 8, !tbaa !11
  %75 = icmp ne ptr %74, null
  br i1 %75, label %77, label %76

76:                                               ; preds = %67
  br label %119

77:                                               ; preds = %67
  %78 = load ptr, ptr %10, align 8, !tbaa !11
  %79 = getelementptr inbounds nuw %struct.engine_st, ptr %78, i32 0, i32 21
  %80 = load i32, ptr %79, align 8, !tbaa !33
  %81 = icmp sgt i32 %80, 0
  br i1 %81, label %86, label %82

82:                                               ; preds = %77
  %83 = load i32, ptr @table_flags, align 4, !tbaa !3
  %84 = and i32 %83, 1
  %85 = icmp ne i32 %84, 0
  br i1 %85, label %89, label %86

86:                                               ; preds = %82, %77
  %87 = load ptr, ptr %10, align 8, !tbaa !11
  %88 = call i32 @engine_unlocked_init(ptr noundef %87)
  store i32 %88, ptr %13, align 4, !tbaa !3
  br label %90

89:                                               ; preds = %82
  store i32 0, ptr %13, align 4, !tbaa !3
  br label %90

90:                                               ; preds = %89, %86
  %91 = load i32, ptr %13, align 4, !tbaa !3
  %92 = icmp ne i32 %91, 0
  br i1 %92, label %93, label %118

93:                                               ; preds = %90
  %94 = load ptr, ptr %12, align 8, !tbaa !20
  %95 = getelementptr inbounds nuw %struct.st_engine_pile, ptr %94, i32 0, i32 2
  %96 = load ptr, ptr %95, align 8, !tbaa !24
  %97 = load ptr, ptr %10, align 8, !tbaa !11
  %98 = icmp ne ptr %96, %97
  br i1 %98, label %99, label %117

99:                                               ; preds = %93
  %100 = load ptr, ptr %10, align 8, !tbaa !11
  %101 = call i32 @engine_unlocked_init(ptr noundef %100)
  %102 = icmp ne i32 %101, 0
  br i1 %102, label %103, label %117

103:                                              ; preds = %99
  %104 = load ptr, ptr %12, align 8, !tbaa !20
  %105 = getelementptr inbounds nuw %struct.st_engine_pile, ptr %104, i32 0, i32 2
  %106 = load ptr, ptr %105, align 8, !tbaa !24
  %107 = icmp ne ptr %106, null
  br i1 %107, label %108, label %113

108:                                              ; preds = %103
  %109 = load ptr, ptr %12, align 8, !tbaa !20
  %110 = getelementptr inbounds nuw %struct.st_engine_pile, ptr %109, i32 0, i32 2
  %111 = load ptr, ptr %110, align 8, !tbaa !24
  %112 = call i32 @engine_unlocked_finish(ptr noundef %111, i32 noundef 0)
  br label %113

113:                                              ; preds = %108, %103
  %114 = load ptr, ptr %10, align 8, !tbaa !11
  %115 = load ptr, ptr %12, align 8, !tbaa !20
  %116 = getelementptr inbounds nuw %struct.st_engine_pile, ptr %115, i32 0, i32 2
  store ptr %114, ptr %116, align 8, !tbaa !24
  br label %117

117:                                              ; preds = %113, %99, %93
  br label %119

118:                                              ; preds = %90
  br label %67

119:                                              ; preds = %117, %76, %62, %53, %41, %31
  %120 = load ptr, ptr %12, align 8, !tbaa !20
  %121 = icmp ne ptr %120, null
  br i1 %121, label %122, label %125

122:                                              ; preds = %119
  %123 = load ptr, ptr %12, align 8, !tbaa !20
  %124 = getelementptr inbounds nuw %struct.st_engine_pile, ptr %123, i32 0, i32 3
  store i32 1, ptr %124, align 8, !tbaa !22
  br label %125

125:                                              ; preds = %122, %119
  %126 = load ptr, ptr %10, align 8, !tbaa !11
  %127 = icmp ne ptr %126, null
  br i1 %127, label %128, label %129

128:                                              ; preds = %125
  br label %130

129:                                              ; preds = %125
  br label %130

130:                                              ; preds = %129, %128
  %131 = load ptr, ptr @global_engine_lock, align 8, !tbaa !10
  %132 = call i32 @CRYPTO_THREAD_unlock(ptr noundef %131)
  %133 = call i32 @ERR_pop_to_mark()
  %134 = load ptr, ptr %10, align 8, !tbaa !11
  store ptr %134, ptr %5, align 8
  store i32 1, ptr %15, align 4
  br label %135

135:                                              ; preds = %130, %25, %20
  call void @llvm.lifetime.end.p0(i64 4, ptr %14) #4
  call void @llvm.lifetime.end.p0(i64 4, ptr %13) #4
  call void @llvm.lifetime.end.p0(i64 8, ptr %12) #4
  call void @llvm.lifetime.end.p0(i64 32, ptr %11) #4
  call void @llvm.lifetime.end.p0(i64 8, ptr %10) #4
  %136 = load ptr, ptr %5, align 8
  ret ptr %136
}