; Function Attrs: nounwind uwtable
define ptr @ossl_engine_table_select(ptr noundef readonly captures(none) %0, i32 noundef %1, ptr noundef readnone captures(none) %2, i32 noundef %3) local_unnamed_addr #2 {
  %5 = alloca %struct.st_engine_pile, align 8
  call void @llvm.lifetime.start.p0(i64 32, ptr nonnull %5) #7
  %6 = tail call i32 @OPENSSL_init_crypto(i64 noundef 64, ptr noundef null) #7
  %7 = load ptr, ptr %0, align 8, !tbaa !9
  %.not = icmp eq ptr %7, null
  br i1 %.not, label %57, label %8

8:                                                ; preds = %4
  %9 = load ptr, ptr @global_engine_lock, align 8, !tbaa !7
  %10 = tail call i32 @CRYPTO_THREAD_write_lock(ptr noundef %9) #7
  %.not35 = icmp eq i32 %10, 0
  br i1 %.not35, label %57, label %11

11:                                               ; preds = %8
  %12 = tail call i32 @ERR_set_mark() #7
  %13 = load ptr, ptr %0, align 8, !tbaa !9
  %.not.i = icmp eq ptr %13, null
  br i1 %.not.i, label %int_table_check.exit.thread, label %int_table_check.exit

int_table_check.exit:                             ; preds = %11
  store i32 %1, ptr %5, align 8, !tbaa !11
  %14 = call ptr @OPENSSL_LH_retrieve(ptr noundef nonnull %13, ptr noundef nonnull %5) #7
  %.not37 = icmp eq ptr %14, null
  br i1 %.not37, label %int_table_check.exit.thread, label %15

15:                                               ; preds = %int_table_check.exit
  %16 = getelementptr inbounds nuw i8, ptr %14, i64 16
  %17 = load ptr, ptr %16, align 8, !tbaa !17
  %.not38 = icmp eq ptr %17, null
  br i1 %.not38, label %22, label %18

18:                                               ; preds = %15
  %19 = call i32 @engine_unlocked_init(ptr noundef nonnull %17) #7
  %.not39 = icmp eq i32 %19, 0
  br i1 %.not39, label %22, label %20

20:                                               ; preds = %18
  %21 = load ptr, ptr %16, align 8, !tbaa !17
  br label %.loopexit

22:                                               ; preds = %18, %15
  %23 = getelementptr inbounds nuw i8, ptr %14, i64 24
  %24 = load i32, ptr %23, align 8, !tbaa !15
  %.not40 = icmp eq i32 %24, 0
  br i1 %.not40, label %.critedge.preheader, label %28

.critedge.preheader:                              ; preds = %22
  %25 = getelementptr inbounds nuw i8, ptr %14, i64 8
  %26 = load ptr, ptr %25, align 8, !tbaa !16
  %27 = call ptr @OPENSSL_sk_value(ptr noundef %26, i32 noundef 0) #7
  %.not4157 = icmp eq ptr %27, null
  br i1 %.not4157, label %.loopexit, label %.lr.ph

28:                                               ; preds = %22
  %29 = load ptr, ptr %16, align 8, !tbaa !17
  br label %.loopexit

.lr.ph:                                           ; preds = %.critedge.preheader, %.critedge.backedge
  %30 = phi ptr [ %43, %.critedge.backedge ], [ %27, %.critedge.preheader ]
  %31 = phi i32 [ %42, %.critedge.backedge ], [ 1, %.critedge.preheader ]
  %32 = getelementptr inbounds nuw i8, ptr %30, i64 160
  %33 = load i32, ptr %32, align 8, !tbaa !21
  %34 = icmp sgt i32 %33, 0
  br i1 %34, label %38, label %35

35:                                               ; preds = %.lr.ph
  %36 = load i32, ptr @table_flags, align 4, !tbaa !3
  %37 = and i32 %36, 1
  %.not42 = icmp eq i32 %37, 0
  br i1 %.not42, label %38, label %.critedge.backedge

38:                                               ; preds = %35, %.lr.ph
  %39 = call i32 @engine_unlocked_init(ptr noundef nonnull %30) #7
  %40 = icmp eq i32 %39, 0
  br i1 %40, label %.critedge.backedge, label %44

.critedge.backedge:                               ; preds = %38, %35
  %41 = load ptr, ptr %25, align 8, !tbaa !16
  %42 = add nuw nsw i32 %31, 1
  %43 = call ptr @OPENSSL_sk_value(ptr noundef %41, i32 noundef %31) #7
  %.not41 = icmp eq ptr %43, null
  br i1 %.not41, label %.loopexit, label %.lr.ph

44:                                               ; preds = %38
  %45 = load ptr, ptr %16, align 8, !tbaa !17
  %.not44 = icmp eq ptr %45, %30
  br i1 %.not44, label %.loopexit, label %46

46:                                               ; preds = %44
  %47 = call i32 @engine_unlocked_init(ptr noundef nonnull %30) #7
  %.not45 = icmp eq i32 %47, 0
  br i1 %.not45, label %.loopexit, label %48

48:                                               ; preds = %46
  %49 = load ptr, ptr %16, align 8, !tbaa !17
  %.not46 = icmp eq ptr %49, null
  br i1 %.not46, label %52, label %50

50:                                               ; preds = %48
  %51 = call i32 @engine_unlocked_finish(ptr noundef nonnull %49, i32 noundef 0) #7
  br label %52

52:                                               ; preds = %50, %48
  store ptr %30, ptr %16, align 8, !tbaa !17
  br label %.loopexit

.loopexit:                                        ; preds = %.critedge.backedge, %.critedge.preheader, %20, %28, %52, %46, %44
  %.028.ph = phi ptr [ %30, %44 ], [ %30, %46 ], [ %30, %52 ], [ %29, %28 ], [ %21, %20 ], [ null, %.critedge.preheader ], [ null, %.critedge.backedge ]
  %53 = getelementptr inbounds nuw i8, ptr %14, i64 24
  store i32 1, ptr %53, align 8, !tbaa !15
  br label %int_table_check.exit.thread

int_table_check.exit.thread:                      ; preds = %11, %int_table_check.exit, %.loopexit
  %.02854 = phi ptr [ %.028.ph, %.loopexit ], [ null, %int_table_check.exit ], [ null, %11 ]
  %54 = load ptr, ptr @global_engine_lock, align 8, !tbaa !7
  %55 = call i32 @CRYPTO_THREAD_unlock(ptr noundef %54) #7
  %56 = call i32 @ERR_pop_to_mark() #7
  br label %57

57:                                               ; preds = %8, %4, %int_table_check.exit.thread
  %.029 = phi ptr [ %.02854, %int_table_check.exit.thread ], [ null, %4 ], [ null, %8 ]
  call void @llvm.lifetime.end.p0(i64 32, ptr nonnull %5) #7
  ret ptr %.029
}